target datalayout = "e-m:e-p270:32:32-p271:32:32-p272:64:64-i64:64-i128:128-f80:128-n8:16:32:64-S128"
target triple = "x86_64-pc-linux-gnu"

%union.SourceSpan = type { i64 }
%union.anon.2 = type { ptr }
%union.anon.3 = type { i16 }
%union.anon.4 = type { %struct.FuncDecl }
%struct.FuncDecl = type { i32, [4 x i8], %struct.Signature_, i32, i32, %union.anon.11 }
%struct.Signature_ = type <{ %struct.CalleeAttributes, i16, i8, i32, i32, [4 x i8], ptr }>
%struct.CalleeAttributes = type { i8 }
%union.anon.11 = type { %struct.anon.12 }
%struct.anon.12 = type { i16, %union.anon.13 }
%union.anon.13 = type { ptr }
%struct.Decl_ = type { ptr, ptr, %union.SourceSpan, i64, %union.anon.2, i32, %union.anon.3, i64, ptr, ptr, ptr, %union.anon.4 }
%struct.VHeader_ = type { i32, i32, [0 x i8] }
%struct.anon.5 = type { ptr, ptr, %union.anon.6 }
%union.anon.6 = type { %struct.BitStructDecl }
%struct.BitStructDecl = type { ptr, ptr, i8 }
%struct.EnumDecl = type { ptr, ptr, ptr }

; Function Attrs: nounwind uwtable
define dso_local ptr @decl_find_enum_constant(ptr noundef %0, ptr noundef %1) #0 {
  %3 = alloca i32, align 4
  %4 = alloca ptr, align 8
  %5 = alloca ptr, align 8
  %6 = alloca ptr, align 8
  %7 = alloca ptr, align 8
  %8 = alloca ptr, align 8
  %9 = alloca i32, align 4
  %10 = alloca i32, align 4
  %11 = alloca ptr, align 8
  store ptr %0, ptr %7, align 8
  store ptr %1, ptr %8, align 8
  store i32 0, ptr %9, align 4
  %12 = load ptr, ptr %7, align 8
  %13 = getelementptr inbounds %struct.Decl_, ptr %12, i32 0, i32 11
  %14 = getelementptr inbounds %struct.anon.5, ptr %13, i32 0, i32 2
  %15 = getelementptr inbounds %struct.EnumDecl, ptr %14, i32 0, i32 0
  %16 = load ptr, ptr %15, align 8
  store ptr %16, ptr %4, align 8
  %17 = load ptr, ptr %4, align 8
  %18 = icmp ne ptr %17, null
  br i1 %18, label %20, label %19

19:                                               ; preds = %2
  store i32 0, ptr %3, align 4
  br label %25

20:                                               ; preds = %2
  %21 = load ptr, ptr %4, align 8
  store ptr %21, ptr %5, align 8
  %22 = load ptr, ptr %5, align 8
  %23 = getelementptr inbounds %struct.VHeader_, ptr %22, i64 -1
  %24 = load i32, ptr %23, align 4
  store i32 %24, ptr %3, align 4
  br label %25

25:                                               ; preds = %20, %19
  %26 = load i32, ptr %3, align 4
  store i32 %26, ptr %10, align 4
  br label %27

27:                                               ; preds = %49, %25
  %28 = load i32, ptr %9, align 4
  %29 = load i32, ptr %10, align 4
  %30 = icmp ult i32 %28, %29
  br i1 %30, label %31, label %52

31:                                               ; preds = %27
  %32 = load ptr, ptr %7, align 8
  %33 = getelementptr inbounds %struct.Decl_, ptr %32, i32 0, i32 11
  %34 = getelementptr inbounds %struct.anon.5, ptr %33, i32 0, i32 2
  %35 = getelementptr inbounds %struct.EnumDecl, ptr %34, i32 0, i32 0
  %36 = load ptr, ptr %35, align 8
  %37 = load i32, ptr %9, align 4
  %38 = zext i32 %37 to i64
  %39 = getelementptr inbounds ptr, ptr %36, i64 %38
  %40 = load ptr, ptr %39, align 8
  store ptr %40, ptr %11, align 8
  %41 = load ptr, ptr %11, align 8
  %42 = getelementptr inbounds %struct.Decl_, ptr %41, i32 0, i32 0
  %43 = load ptr, ptr %42, align 8
  %44 = load ptr, ptr %8, align 8
  %45 = icmp eq ptr %43, %44
  br i1 %45, label %46, label %48

46:                                               ; preds = %31
  %47 = load ptr, ptr %11, align 8
  store ptr %47, ptr %6, align 8
  br label %53

48:                                               ; preds = %31
  br label %49

49:                                               ; preds = %48
  %50 = load i32, ptr %9, align 4
  %51 = add i32 %50, 1
  store i32 %51, ptr %9, align 4
  br label %27, !llvm.loop !16

52:                                               ; preds = %27
  store ptr null, ptr %6, align 8
  br label %53

53:                                               ; preds = %52, %46
  %54 = load ptr, ptr %6, align 8
  ret ptr %54
}