; Function Attrs: nofree norecurse nosync nounwind memory(read, inaccessiblemem: none) uwtable
define dso_local noundef ptr @decl_find_enum_constant(ptr nocapture noundef readonly %0, ptr noundef readnone %1) local_unnamed_addr #7 {
  %3 = getelementptr inbounds i8, ptr %0, i64 96
  %4 = load ptr, ptr %3, align 8
  %.not = icmp eq ptr %4, null
  br i1 %.not, label %._crit_edge, label %5

5:                                                ; preds = %2
  %6 = getelementptr inbounds i8, ptr %4, i64 -8
  %7 = load i32, ptr %6, align 4
  %.not19 = icmp eq i32 %7, 0
  br i1 %.not19, label %._crit_edge, label %.lr.ph.preheader

.lr.ph.preheader:                                 ; preds = %5
  %wide.trip.count = zext i32 %7 to i64
  br label %.lr.ph

8:                                                ; preds = %.lr.ph
  %indvars.iv.next = add nuw nsw i64 %indvars.iv, 1
  %exitcond.not = icmp eq i64 %indvars.iv.next, %wide.trip.count
  br i1 %exitcond.not, label %._crit_edge, label %.lr.ph, !llvm.loop !16

.lr.ph:                                           ; preds = %.lr.ph.preheader, %8
  %indvars.iv = phi i64 [ 0, %.lr.ph.preheader ], [ %indvars.iv.next, %8 ]
  %9 = getelementptr inbounds ptr, ptr %4, i64 %indvars.iv
  %10 = load ptr, ptr %9, align 8
  %11 = load ptr, ptr %10, align 8
  %12 = icmp eq ptr %11, %1
  br i1 %12, label %._crit_edge, label %8

._crit_edge:                                      ; preds = %.lr.ph, %8, %2, %5
  %.013 = phi ptr [ null, %5 ], [ null, %2 ], [ null, %8 ], [ %10, %.lr.ph ]
  ret ptr %.013
}